(dp0
S'transparency'
p1
S'auto'
p2
sS'name'
p3
Vtestblock
p4
sS'texture'
p5
(lp6
VE:/Programmieren/Python/McModder_v5/assets/textures/blocks/unknown.png
p7
ag7
ag7
ag7
ag7
ag7
asS'textureMode'
p8
I00
s.