(dp0
S'transparency'
p1
S'auto'
p2
sS'name'
p3
S'testblock'
p4
sS'texture'
p5
(lp6
S'E:/Programmieren/Python/McModder_v5/assets/textures/blocks/cake_top.png'
p7
ag7
ag7
ag7
ag7
ag7
asS'textureMode'
p8
I00
s.