(dp0
S'transparency'
p1
S'auto'
p2
sS'creativeTab'
p3
VFood
p4
sS'name'
p5
S'testblock'
p6
sS'texture'
p7
(lp8
S'E:/Programmieren/Python/McModder_v5/assets/textures/blocks/cake_bottom.png'
p9
aS'E:/Programmieren/Python/McModder_v5/assets/textures/blocks/cake_top.png'
p10
aS'E:/Programmieren/Python/McModder_v5/assets/textures/blocks/cake_side.png'
p11
aS'E:/Programmieren/Python/McModder_v5/assets/textures/blocks/cake_side.png'
p12
aS'E:/Programmieren/Python/McModder_v5/assets/textures/blocks/cake_side.png'
p13
aS'E:/Programmieren/Python/McModder_v5/assets/textures/blocks/cake_side.png'
p14
asS'textureMode'
p15
I01
s.