(dp0
S'modeldata'
p1
(lp2
(dp3
S'cuboids'
p4
(lp5
(dp6
S'textures'
p7
(lp8
S'E:\\Programmieren\\Python\\McModder_v5/assets/textures/blocks/unknown.png'
p9
ag9
ag9
ag9
ag9
ag9
asS'name'
p10
S'unnamed'
p11
sS'uvs'
p12
(lp13
(lp14
(lp15
F0.0
aF0.0
aa(lp16
F1.0
aF1.0
aaa(lp17
(lp18
F0.0
aF0.0
aa(lp19
F1.0
aF1.0
aaa(lp20
(lp21
F0.0
aF0.0
aa(lp22
F1.0
aF1.0
aaa(lp23
(lp24
F0.0
aF0.0
aa(lp25
F1.0
aF1.0
aaa(lp26
(lp27
F0.0
aF0.0
aa(lp28
F1.0
aF1.0
aaa(lp29
(lp30
F0.0
aF0.0
aa(lp31
F1.0
aF1.0
aaasS'translation'
p32
(lp33
F0.0
aF0.0
aF0.0
asS'rotation'
p34
(lp35
F0.0
aF0.0
aF0.0
asS'dimensions'
p36
(lp37
F8.0
aF16.0
aF16.0
asa(dp38
g7
(lp39
g9
ag9
ag9
ag9
ag9
ag9
asg10
g11
sg12
(lp40
(lp41
(lp42
F0.0
aF0.0
aa(lp43
F1.0
aF1.0
aaa(lp44
(lp45
F0.0
aF0.0
aa(lp46
F1.0
aF1.0
aaa(lp47
(lp48
F0.0
aF0.0
aa(lp49
F1.0
aF1.0
aaa(lp50
(lp51
F0.0
aF0.0
aa(lp52
F1.0
aF1.0
aaa(lp53
(lp54
F0.0
aF0.0
aa(lp55
F1.0
aF1.0
aaa(lp56
(lp57
F0.0
aF0.0
aa(lp58
F1.0
aF1.0
aaasg32
(lp59
F8.0
aF0.0
aF0.0
asg34
(lp60
F0.0
aF0.0
aF0.0
asg36
(lp61
F8.0
aF16.0
aF8.0
asasaS'{\n\t"textures": {\n\t\t"#0": "<modid>:blocks/<unlocalizedName>_0"\n\t},\n\t"elements": [\n\t\t{\n\t\t\t"to": [16.0, 16.0, 8.0],\n\t\t\t"from": [0.0, 0.0, 0.0],\n\t\t\t"name": "unnamed",\n\t\t\t"faces": {\n\t\t\t\t"north": {\n\t\t\t\t\t"uv": [0.0, 0.0, 16.0, 16.0],\n\t\t\t\t\t"texture": "#0"\n\t\t\t\t},\n\t\t\t\t"west": {\n\t\t\t\t\t"uv": [0.0, 0.0, 16.0, 16.0],\n\t\t\t\t\t"texture": "#0"\n\t\t\t\t},\n\t\t\t\t"up": {\n\t\t\t\t\t"uv": [0.0, 0.0, 16.0, 16.0],\n\t\t\t\t\t"texture": "#0"\n\t\t\t\t},\n\t\t\t\t"down": {\n\t\t\t\t\t"uv": [0.0, 0.0, 16.0, 16.0],\n\t\t\t\t\t"texture": "#0"\n\t\t\t\t},\n\t\t\t\t"east": {\n\t\t\t\t\t"uv": [0.0, 0.0, 16.0, 16.0],\n\t\t\t\t\t"texture": "#0"\n\t\t\t\t},\n\t\t\t\t"south": {\n\t\t\t\t\t"uv": [0.0, 0.0, 16.0, 16.0],\n\t\t\t\t\t"texture": "#0"\n\t\t\t\t}\n\t\t\t}\n\t\t},\n\t\t{\n\t\t\t"to": [16.0, 8.0, 16.0],\n\t\t\t"from": [0.0, 0.0, 8.0],\n\t\t\t"name": "unnamed",\n\t\t\t"faces": {\n\t\t\t\t"north": {\n\t\t\t\t\t"uv": [0.0, 0.0, 16.0, 16.0],\n\t\t\t\t\t"texture": "#0"\n\t\t\t\t},\n\t\t\t\t"west": {\n\t\t\t\t\t"uv": [0.0, 0.0, 16.0, 16.0],\n\t\t\t\t\t"texture": "#0"\n\t\t\t\t},\n\t\t\t\t"up": {\n\t\t\t\t\t"uv": [0.0, 0.0, 16.0, 16.0],\n\t\t\t\t\t"texture": "#0"\n\t\t\t\t},\n\t\t\t\t"down": {\n\t\t\t\t\t"uv": [0.0, 0.0, 16.0, 16.0],\n\t\t\t\t\t"texture": "#0"\n\t\t\t\t},\n\t\t\t\t"east": {\n\t\t\t\t\t"uv": [0.0, 0.0, 16.0, 16.0],\n\t\t\t\t\t"texture": "#0"\n\t\t\t\t},\n\t\t\t\t"south": {\n\t\t\t\t\t"uv": [0.0, 0.0, 16.0, 16.0],\n\t\t\t\t\t"texture": "#0"\n\t\t\t\t}\n\t\t\t}\n\t\t}\n\t]\n}'
p62
a(lp63
g9
aasS'rotateable'
p64
I2
sg10
S'testblock'
p65
sS'transparency'
p66
S'auto'
p67
sS'creativeTab'
p68
S'Building Blocks'
p69
s.