(dp0
S'transparency'
p1
S'auto'
p2
sS'creativeTab'
p3
VFood
p4
sS'name'
p5
S'testblock'
p6
sS'texture'
p7
(lp8
S'E:/Programmieren/Python/McModder_v5/assets/textures/blocks/cake_top.png'
p9
ag9
ag9
ag9
ag9
ag9
asS'textureMode'
p10
I00
s.