(dp0
S'name'
p1
S'testblock'
p2
sS'texture'
p3
(lp4
S'E:/Programmieren/Python/McModder_v5/assets/textures/blocks/cake_bottom.png'
p5
aS'E:/Programmieren/Python/McModder_v5/assets/textures/blocks/cake_top.png'
p6
aVE:/Programmieren/Python/McModder_v5/assets/textures/blocks/cake_side.png
p7
aVE:/Programmieren/Python/McModder_v5/assets/textures/blocks/bedrock.png
p8
aS'E:/Programmieren/Python/McModder_v5/assets/textures/blocks/cake_side.png'
p9
ag9
asS'creativeTab'
p10
VFood
p11
sS'rotateable'
p12
I2
sS'transparency'
p13
S'auto'
p14
sS'multitextured'
p15
I01
s.