(dp0
S'addons'
p1
(lp2
VE:/Programmieren/Python/McModder_v5/classes/objects/Block.py
p3
aVE:/Programmieren/Python/McModder_v5/classes/objects/Item.py
p4
aS'E:/Programmieren/Python/McModder_v5/classes/objects/BaseMod.py'
p5
asS'workspace'
p6
VE:\u005cProgrammieren\u005cPython\u005cMcModder_v5\u005cworkspace
p7
sS'language'
p8
S'English'
p9
s.