(dp0
S'addons'
p1
(lp2
S'E:\\Programmieren\\Python\\McModder_v5/addons/BaseMod/BaseMod.py'
p3
aS'E:\\Programmieren\\Python\\McModder_v5/addons/Block/Block.py'
p4
aS'E:\\Programmieren\\Python\\McModder_v5/addons/Item/Item.py'
p5
asS'language'
p6
S'English'
p7
sS'workspace'
p8
VE:\u005cProgrammieren\u005cPython\u005cMcModder_v5\u005cworkspace
p9
s.