(dp0
S'addons'
p1
(lp2
VE:/Programmieren/Python/McModder_v5/classes/objects/Block.py
p3
aVE:/Programmieren/Python/McModder_v5/classes/objects/Item.py
p4
asS'language'
p5
S'English'
p6
sS'workspace'
p7
VE:\u005cProgrammieren\u005cPython\u005cMcModder_v5\u005cworkspace
p8
s.